target datalayout = "e-m:e-p270:32:32-p271:32:32-p272:64:64-i64:64-i128:128-f80:128-n8:16:32:64-S128"
target triple = "x86_64-pc-linux-gnu"

%struct.archive_entry = type { ptr, ptr, i32, %struct.aest, i32, %struct.archive_mstring, i64, i64, %struct.archive_mstring, %struct.archive_mstring, %struct.archive_mstring, %struct.archive_mstring, %struct.archive_mstring, i8, ptr, i64, %struct.ae_digest, %struct.archive_acl, ptr, ptr, ptr, ptr, ptr, [12 x i8], i32 }
%struct.aest = type { i64, i32, i64, i32, i64, i32, i64, i32, i64, i64, i32, i64, i64, i32, i64, i64, i64, i32, i64, i64, i64 }
%struct.archive_mstring = type { %struct.archive_string, %struct.archive_string, %struct.archive_wstring, %struct.archive_string, i32 }
%struct.archive_wstring = type { ptr, i64, i64 }
%struct.archive_string = type { ptr, i64, i64 }
%struct.ae_digest = type { [16 x i8], [20 x i8], [20 x i8], [32 x i8], [48 x i8], [64 x i8] }
%struct.archive_acl = type { i32, ptr, ptr, i32, ptr, ptr, i32 }

; Function Attrs: nounwind uwtable
define dso_local void @archive_entry_set_atime(ptr noundef %0, i64 noundef %1, i64 noundef %2) #0 {
  %4 = alloca ptr, align 8
  %5 = alloca i64, align 8
  %6 = alloca i64, align 8
  store ptr %0, ptr %4, align 8, !tbaa !4
  store i64 %1, ptr %5, align 8, !tbaa !27
  store i64 %2, ptr %6, align 8, !tbaa !27
  br label %7

7:                                                ; preds = %3
  %8 = load i64, ptr %6, align 8, !tbaa !27
  %9 = sdiv i64 %8, 1000000000
  %10 = load i64, ptr %5, align 8, !tbaa !27
  %11 = add nsw i64 %10, %9
  store i64 %11, ptr %5, align 8, !tbaa !27
  %12 = load i64, ptr %6, align 8, !tbaa !27
  %13 = srem i64 %12, 1000000000
  store i64 %13, ptr %6, align 8, !tbaa !27
  %14 = load i64, ptr %6, align 8, !tbaa !27
  %15 = icmp slt i64 %14, 0
  br i1 %15, label %16, label %21

16:                                               ; preds = %7
  %17 = load i64, ptr %5, align 8, !tbaa !27
  %18 = add nsw i64 %17, -1
  store i64 %18, ptr %5, align 8, !tbaa !27
  %19 = load i64, ptr %6, align 8, !tbaa !27
  %20 = add nsw i64 %19, 1000000000
  store i64 %20, ptr %6, align 8, !tbaa !27
  br label %21

21:                                               ; preds = %16, %7
  br label %22

22:                                               ; preds = %21
  %23 = load ptr, ptr %4, align 8, !tbaa !4
  %24 = getelementptr inbounds nuw %struct.archive_entry, ptr %23, i32 0, i32 2
  store i32 0, ptr %24, align 8, !tbaa !94
  %25 = load ptr, ptr %4, align 8, !tbaa !4
  %26 = getelementptr inbounds nuw %struct.archive_entry, ptr %25, i32 0, i32 4
  %27 = load i32, ptr %26, align 8, !tbaa !35
  %28 = or i32 %27, 4
  store i32 %28, ptr %26, align 8, !tbaa !35
  %29 = load i64, ptr %5, align 8, !tbaa !27
  %30 = load ptr, ptr %4, align 8, !tbaa !4
  %31 = getelementptr inbounds nuw %struct.archive_entry, ptr %30, i32 0, i32 3
  %32 = getelementptr inbounds nuw %struct.aest, ptr %31, i32 0, i32 0
  store i64 %29, ptr %32, align 8, !tbaa !56
  %33 = load i64, ptr %6, align 8, !tbaa !27
  %34 = trunc i64 %33 to i32
  %35 = load ptr, ptr %4, align 8, !tbaa !4
  %36 = getelementptr inbounds nuw %struct.archive_entry, ptr %35, i32 0, i32 3
  %37 = getelementptr inbounds nuw %struct.aest, ptr %36, i32 0, i32 1
  store i32 %34, ptr %37, align 8, !tbaa !57
  ret void
}

; Function Attrs: nounwind uwtable
define dso_local void @archive_entry_unset_atime(ptr noundef %0) #0 {
  %2 = alloca ptr, align 8
  store ptr %0, ptr %2, align 8, !tbaa !4
  %3 = load ptr, ptr %2, align 8, !tbaa !4
  call void @archive_entry_set_atime(ptr noundef %3, i64 noundef 0, i64 noundef 0)
  %4 = load ptr, ptr %2, align 8, !tbaa !4
  %5 = getelementptr inbounds nuw %struct.archive_entry, ptr %4, i32 0, i32 4
  %6 = load i32, ptr %5, align 8, !tbaa !35
  %7 = and i32 %6, -5
  store i32 %7, ptr %5, align 8, !tbaa !35
  ret void
}